target datalayout = "e-m:e-p270:32:32-p271:32:32-p272:64:64-i64:64-i128:128-f80:128-n8:16:32:64-S128"
target triple = "x86_64-unknown-linux-gnu"

%"class.std::vector.3" = type { %"struct.std::_Vector_base.4" }
%"struct.std::_Vector_base.4" = type { %"struct.std::_Vector_base<std::shared_ptr<const facebook::velox::core::PlanNode>, std::allocator<std::shared_ptr<const facebook::velox::core::PlanNode>>>::_Vector_impl" }
%"struct.std::_Vector_base<std::shared_ptr<const facebook::velox::core::PlanNode>, std::allocator<std::shared_ptr<const facebook::velox::core::PlanNode>>>::_Vector_impl" = type { %"struct.std::_Vector_base<std::shared_ptr<const facebook::velox::core::PlanNode>, std::allocator<std::shared_ptr<const facebook::velox::core::PlanNode>>>::_Vector_impl_data" }
%"struct.std::_Vector_base<std::shared_ptr<const facebook::velox::core::PlanNode>, std::allocator<std::shared_ptr<const facebook::velox::core::PlanNode>>>::_Vector_impl_data" = type { ptr, ptr, ptr }
%"class.std::__cxx11::basic_string" = type { %"struct.std::__cxx11::basic_string<char>::_Alloc_hider", i64, %union.anon }
%"struct.std::__cxx11::basic_string<char>::_Alloc_hider" = type { ptr }
%union.anon = type { i64, [8 x i8] }
%"class.facebook::velox::core::PlanNode" = type { %"class.facebook::velox::ISerializable", %"class.std::__cxx11::basic_string" }
%"class.facebook::velox::ISerializable" = type { ptr }
%"class.std::vector.8" = type { %"struct.std::_Vector_base.9" }
%"struct.std::_Vector_base.9" = type { %"struct.std::_Vector_base<std::shared_ptr<const facebook::velox::core::FieldAccessTypedExpr>, std::allocator<std::shared_ptr<const facebook::velox::core::FieldAccessTypedExpr>>>::_Vector_impl" }
%"struct.std::_Vector_base<std::shared_ptr<const facebook::velox::core::FieldAccessTypedExpr>, std::allocator<std::shared_ptr<const facebook::velox::core::FieldAccessTypedExpr>>>::_Vector_impl" = type { %"struct.std::_Vector_base<std::shared_ptr<const facebook::velox::core::FieldAccessTypedExpr>, std::allocator<std::shared_ptr<const facebook::velox::core::FieldAccessTypedExpr>>>::_Vector_impl_data" }
%"struct.std::_Vector_base<std::shared_ptr<const facebook::velox::core::FieldAccessTypedExpr>, std::allocator<std::shared_ptr<const facebook::velox::core::FieldAccessTypedExpr>>>::_Vector_impl_data" = type { ptr, ptr, ptr }
%"class.std::vector.58" = type { %"struct.std::_Vector_base.59" }
%"struct.std::_Vector_base.59" = type { %"struct.std::_Vector_base<facebook::velox::core::SortOrder, std::allocator<facebook::velox::core::SortOrder>>::_Vector_impl" }
%"struct.std::_Vector_base<facebook::velox::core::SortOrder, std::allocator<facebook::velox::core::SortOrder>>::_Vector_impl" = type { %"struct.std::_Vector_base<facebook::velox::core::SortOrder, std::allocator<facebook::velox::core::SortOrder>>::_Vector_impl_data" }
%"struct.std::_Vector_base<facebook::velox::core::SortOrder, std::allocator<facebook::velox::core::SortOrder>>::_Vector_impl_data" = type { ptr, ptr, ptr }
%"class.facebook::velox::core::TopNNode" = type { %"class.facebook::velox::core::PlanNode", %"class.std::vector.8", %"class.std::vector.58", i32, i8, %"class.std::vector.3" }

@.str.6 = private unnamed_addr constant [2 x i8] c" \00", align 1
@.str.118 = private unnamed_addr constant [9 x i8] c"PARTIAL \00", align 1

; Function Attrs: mustprogress uwtable
define void @_ZNK8facebook5velox4core8TopNNode10addDetailsERNSt7__cxx1118basic_stringstreamIcSt11char_traitsIcESaIcEEE(ptr noundef nonnull align 8 dereferenceable(120) %this, ptr noundef nonnull align 8 dereferenceable(128) %stream) unnamed_addr #2 align 2 {
entry:
  %this.addr = alloca ptr, align 8
  %stream.addr = alloca ptr, align 8
  store ptr %this, ptr %this.addr, align 8
  store ptr %stream, ptr %stream.addr, align 8
  %this1 = load ptr, ptr %this.addr, align 8
  %isPartial_ = getelementptr inbounds %"class.facebook::velox::core::TopNNode", ptr %this1, i32 0, i32 4
  %0 = load i8, ptr %isPartial_, align 4
  %tobool = trunc i8 %0 to i1
  br i1 %tobool, label %if.then, label %if.end

if.then:                                          ; preds = %entry
  %1 = load ptr, ptr %stream.addr, align 8
  %add.ptr = getelementptr inbounds i8, ptr %1, i64 16
  %call = call noundef nonnull align 8 dereferenceable(8) ptr @_ZStlsISt11char_traitsIcEERSt13basic_ostreamIcT_ES5_PKc(ptr noundef nonnull align 8 dereferenceable(8) %add.ptr, ptr noundef @.str.118)
  br label %if.end

if.end:                                           ; preds = %if.then, %entry
  %2 = load ptr, ptr %stream.addr, align 8
  %add.ptr2 = getelementptr inbounds i8, ptr %2, i64 16
  %count_ = getelementptr inbounds %"class.facebook::velox::core::TopNNode", ptr %this1, i32 0, i32 3
  %3 = load i32, ptr %count_, align 8
  %call3 = call noundef nonnull align 8 dereferenceable(8) ptr @_ZNSolsEi(ptr noundef nonnull align 8 dereferenceable(8) %add.ptr2, i32 noundef %3)
  %call4 = call noundef nonnull align 8 dereferenceable(8) ptr @_ZStlsISt11char_traitsIcEERSt13basic_ostreamIcT_ES5_PKc(ptr noundef nonnull align 8 dereferenceable(8) %call3, ptr noundef @.str.6)
  %sortingKeys_ = getelementptr inbounds %"class.facebook::velox::core::TopNNode", ptr %this1, i32 0, i32 1
  %sortingOrders_ = getelementptr inbounds %"class.facebook::velox::core::TopNNode", ptr %this1, i32 0, i32 2
  %4 = load ptr, ptr %stream.addr, align 8
  call void @_ZN8facebook5velox4core12_GLOBAL__N_114addSortingKeysERKSt6vectorISt10shared_ptrIKNS1_20FieldAccessTypedExprEESaIS7_EERKS3_INS1_9SortOrderESaISC_EERNSt7__cxx1118basic_stringstreamIcSt11char_traitsIcESaIcEEE(ptr noundef nonnull align 8 dereferenceable(24) %sortingKeys_, ptr noundef nonnull align 8 dereferenceable(24) %sortingOrders_, ptr noundef nonnull align 8 dereferenceable(128) %4)
  ret void
}