; Function Attrs: mustprogress uwtable
define void @_ZNK8facebook5velox4core8TopNNode10addDetailsERNSt7__cxx1118basic_stringstreamIcSt11char_traitsIcESaIcEEE(ptr nocapture noundef nonnull readonly align 8 dereferenceable(120) %this, ptr noundef nonnull align 8 dereferenceable(128) %stream) unnamed_addr #0 align 2 {
entry:
  %isPartial_ = getelementptr inbounds i8, ptr %this, i64 92
  %0 = load i8, ptr %isPartial_, align 4
  %1 = and i8 %0, 1
  %tobool.not = icmp eq i8 %1, 0
  br i1 %tobool.not, label %if.end, label %if.then

if.then:                                          ; preds = %entry
  %add.ptr = getelementptr inbounds i8, ptr %stream, i64 16
  %call = tail call noundef nonnull align 8 dereferenceable(8) ptr @_ZStlsISt11char_traitsIcEERSt13basic_ostreamIcT_ES5_PKc(ptr noundef nonnull align 8 dereferenceable(8) %add.ptr, ptr noundef nonnull @.str.118)
  br label %if.end

if.end:                                           ; preds = %if.then, %entry
  %add.ptr2 = getelementptr inbounds i8, ptr %stream, i64 16
  %count_ = getelementptr inbounds i8, ptr %this, i64 88
  %2 = load i32, ptr %count_, align 8
  %call3 = tail call noundef nonnull align 8 dereferenceable(8) ptr @_ZNSolsEi(ptr noundef nonnull align 8 dereferenceable(8) %add.ptr2, i32 noundef %2)
  %call4 = tail call noundef nonnull align 8 dereferenceable(8) ptr @_ZStlsISt11char_traitsIcEERSt13basic_ostreamIcT_ES5_PKc(ptr noundef nonnull align 8 dereferenceable(8) %call3, ptr noundef nonnull @.str.6)
  %sortingKeys_ = getelementptr inbounds i8, ptr %this, i64 40
  %sortingOrders_ = getelementptr inbounds i8, ptr %this, i64 64
  tail call fastcc void @_ZN8facebook5velox4core12_GLOBAL__N_114addSortingKeysERKSt6vectorISt10shared_ptrIKNS1_20FieldAccessTypedExprEESaIS7_EERKS3_INS1_9SortOrderESaISC_EERNSt7__cxx1118basic_stringstreamIcSt11char_traitsIcESaIcEEE(ptr noundef nonnull align 8 dereferenceable(24) %sortingKeys_, ptr noundef nonnull align 8 dereferenceable(24) %sortingOrders_, ptr noundef nonnull align 8 dereferenceable(128) %stream)
  ret void
}